target datalayout = "e-m:e-p270:32:32-p271:32:32-p272:64:64-i64:64-i128:128-f80:128-n8:16:32:64-S128"
target triple = "x86_64-pc-linux-gnu"

; Function Attrs: inlinehint nounwind uwtable
define internal zeroext i8 @clip_8b(i32 noundef %0) #4 {
  %2 = alloca i32, align 4
  store i32 %0, ptr %2, align 4, !tbaa !9
  %3 = load i32, ptr %2, align 4, !tbaa !9
  %4 = and i32 %3, -256
  %5 = icmp ne i32 %4, 0
  br i1 %5, label %8, label %6

6:                                                ; preds = %1
  %7 = load i32, ptr %2, align 4, !tbaa !9
  br label %12

8:                                                ; preds = %1
  %9 = load i32, ptr %2, align 4, !tbaa !9
  %10 = icmp slt i32 %9, 0
  %11 = select i1 %10, i32 0, i32 255
  br label %12

12:                                               ; preds = %8, %6
  %13 = phi i32 [ %7, %6 ], [ %11, %8 ]
  %14 = trunc i32 %13 to i8
  ret i8 %14
}

; Function Attrs: nounwind uwtable
define internal void @DitherCombine8x8_C(ptr noalias noundef %0, ptr noalias noundef %1, i32 noundef %2) #0 {
  %4 = alloca ptr, align 8
  %5 = alloca ptr, align 8
  %6 = alloca i32, align 4
  %7 = alloca i32, align 4
  %8 = alloca i32, align 4
  %9 = alloca i32, align 4
  %10 = alloca i32, align 4
  store ptr %0, ptr %4, align 8, !tbaa !16
  store ptr %1, ptr %5, align 8, !tbaa !16
  store i32 %2, ptr %6, align 4, !tbaa !9
  call void @llvm.lifetime.start.p0(i64 4, ptr %7) #7
  call void @llvm.lifetime.start.p0(i64 4, ptr %8) #7
  store i32 0, ptr %8, align 4, !tbaa !9
  br label %11

11:                                               ; preds = %52, %3
  %12 = load i32, ptr %8, align 4, !tbaa !9
  %13 = icmp slt i32 %12, 8
  br i1 %13, label %14, label %55

14:                                               ; preds = %11
  store i32 0, ptr %7, align 4, !tbaa !9
  br label %15

15:                                               ; preds = %42, %14
  %16 = load i32, ptr %7, align 4, !tbaa !9
  %17 = icmp slt i32 %16, 8
  br i1 %17, label %18, label %45

18:                                               ; preds = %15
  call void @llvm.lifetime.start.p0(i64 4, ptr %9) #7
  %19 = load ptr, ptr %4, align 8, !tbaa !16
  %20 = load i32, ptr %7, align 4, !tbaa !9
  %21 = sext i32 %20 to i64
  %22 = getelementptr inbounds i8, ptr %19, i64 %21
  %23 = load i8, ptr %22, align 1, !tbaa !18
  %24 = zext i8 %23 to i32
  %25 = sub nsw i32 %24, 128
  store i32 %25, ptr %9, align 4, !tbaa !9
  call void @llvm.lifetime.start.p0(i64 4, ptr %10) #7
  %26 = load i32, ptr %9, align 4, !tbaa !9
  %27 = add nsw i32 %26, 8
  %28 = ashr i32 %27, 4
  store i32 %28, ptr %10, align 4, !tbaa !9
  %29 = load ptr, ptr %5, align 8, !tbaa !16
  %30 = load i32, ptr %7, align 4, !tbaa !9
  %31 = sext i32 %30 to i64
  %32 = getelementptr inbounds i8, ptr %29, i64 %31
  %33 = load i8, ptr %32, align 1, !tbaa !18
  %34 = zext i8 %33 to i32
  %35 = load i32, ptr %10, align 4, !tbaa !9
  %36 = add nsw i32 %34, %35
  %37 = call zeroext i8 @clip_8b(i32 noundef %36)
  %38 = load ptr, ptr %5, align 8, !tbaa !16
  %39 = load i32, ptr %7, align 4, !tbaa !9
  %40 = sext i32 %39 to i64
  %41 = getelementptr inbounds i8, ptr %38, i64 %40
  store i8 %37, ptr %41, align 1, !tbaa !18
  call void @llvm.lifetime.end.p0(i64 4, ptr %10) #7
  call void @llvm.lifetime.end.p0(i64 4, ptr %9) #7
  br label %42

42:                                               ; preds = %18
  %43 = load i32, ptr %7, align 4, !tbaa !9
  %44 = add nsw i32 %43, 1
  store i32 %44, ptr %7, align 4, !tbaa !9
  br label %15, !llvm.loop !40

45:                                               ; preds = %15
  %46 = load i32, ptr %6, align 4, !tbaa !9
  %47 = load ptr, ptr %5, align 8, !tbaa !16
  %48 = sext i32 %46 to i64
  %49 = getelementptr inbounds i8, ptr %47, i64 %48
  store ptr %49, ptr %5, align 8, !tbaa !16
  %50 = load ptr, ptr %4, align 8, !tbaa !16
  %51 = getelementptr inbounds i8, ptr %50, i64 8
  store ptr %51, ptr %4, align 8, !tbaa !16
  br label %52

52:                                               ; preds = %45
  %53 = load i32, ptr %8, align 4, !tbaa !9
  %54 = add nsw i32 %53, 1
  store i32 %54, ptr %8, align 4, !tbaa !9
  br label %11, !llvm.loop !41

55:                                               ; preds = %11
  call void @llvm.lifetime.end.p0(i64 4, ptr %8) #7
  call void @llvm.lifetime.end.p0(i64 4, ptr %7) #7
  ret void
}