; Function Attrs: nofree norecurse nosync nounwind memory(argmem: readwrite) uwtable
define internal void @DitherCombine8x8_C(ptr noalias noundef readonly captures(none) %0, ptr noalias noundef captures(none) %1, i32 noundef %2) #3 {
  %4 = sext i32 %2 to i64
  br label %.preheader

.preheader:                                       ; preds = %3, %18
  %.020 = phi ptr [ %0, %3 ], [ %20, %18 ]
  %.01419 = phi ptr [ %1, %3 ], [ %19, %18 ]
  %.01518 = phi i32 [ 0, %3 ], [ %21, %18 ]
  br label %5

5:                                                ; preds = %.preheader, %5
  %indvars.iv = phi i64 [ 0, %.preheader ], [ %indvars.iv.next, %5 ]
  %6 = getelementptr inbounds nuw i8, ptr %.020, i64 %indvars.iv
  %7 = load i8, ptr %6, align 1, !tbaa !14
  %8 = zext i8 %7 to i32
  %9 = add nsw i32 %8, -120
  %10 = ashr i32 %9, 4
  %11 = getelementptr inbounds nuw i8, ptr %.01419, i64 %indvars.iv
  %12 = load i8, ptr %11, align 1, !tbaa !14
  %13 = zext i8 %12 to i32
  %14 = add nsw i32 %10, %13
  %15 = tail call i32 @llvm.smax.i32(i32 range(i32 -268435456, 268435711) %14, i32 0)
  %16 = tail call i32 @llvm.umin.i32(i32 %15, i32 255)
  %17 = trunc nuw i32 %16 to i8
  store i8 %17, ptr %11, align 1, !tbaa !14
  %indvars.iv.next = add nuw nsw i64 %indvars.iv, 1
  %exitcond.not = icmp eq i64 %indvars.iv.next, 8
  br i1 %exitcond.not, label %18, label %5, !llvm.loop !42

18:                                               ; preds = %5
  %19 = getelementptr inbounds i8, ptr %.01419, i64 %4
  %20 = getelementptr inbounds nuw i8, ptr %.020, i64 8
  %21 = add nuw nsw i32 %.01518, 1
  %exitcond22.not = icmp eq i32 %21, 8
  br i1 %exitcond22.not, label %22, label %.preheader, !llvm.loop !43

22:                                               ; preds = %18
  ret void
}